target datalayout = "e-m:e-p270:32:32-p271:32:32-p272:64:64-i64:64-i128:128-f80:128-n8:16:32:64-S128"
target triple = "x86_64-pc-linux-gnu"

%struct.__va_list_tag = type { i32, i32, ptr, ptr }

@php_cli_server_log_level = internal global i32 3, align 4

; Function Attrs: nounwind uwtable
define internal void @php_cli_server_logf(i32 noundef %0, ptr noundef %1, ...) #0 {
  %3 = alloca i32, align 4
  %4 = alloca ptr, align 8
  %5 = alloca ptr, align 8
  %6 = alloca [1 x %struct.__va_list_tag], align 16
  %7 = alloca i32, align 4
  store i32 %0, ptr %3, align 4, !tbaa !117
  store ptr %1, ptr %4, align 8, !tbaa !67
  call void @llvm.lifetime.start.p0(i64 8, ptr %5) #20
  store ptr null, ptr %5, align 8, !tbaa !67
  call void @llvm.lifetime.start.p0(i64 24, ptr %6) #20
  %8 = load i32, ptr @php_cli_server_log_level, align 4, !tbaa !117
  %9 = load i32, ptr %3, align 4, !tbaa !117
  %10 = icmp slt i32 %8, %9
  br i1 %10, label %11, label %12

11:                                               ; preds = %2
  store i32 1, ptr %7, align 4
  br label %25

12:                                               ; preds = %2
  %13 = getelementptr inbounds [1 x %struct.__va_list_tag], ptr %6, i64 0, i64 0
  call void @llvm.va_start.p0(ptr %13)
  %14 = load ptr, ptr %4, align 8, !tbaa !67
  %15 = getelementptr inbounds [1 x %struct.__va_list_tag], ptr %6, i64 0, i64 0
  %16 = call i64 @zend_vspprintf(ptr noundef %5, i64 noundef 0, ptr noundef %14, ptr noundef %15)
  %17 = getelementptr inbounds [1 x %struct.__va_list_tag], ptr %6, i64 0, i64 0
  call void @llvm.va_end.p0(ptr %17)
  %18 = load ptr, ptr %5, align 8, !tbaa !67
  %19 = icmp ne ptr %18, null
  br i1 %19, label %21, label %20

20:                                               ; preds = %12
  store i32 1, ptr %7, align 4
  br label %25

21:                                               ; preds = %12
  %22 = load i32, ptr %3, align 4, !tbaa !117
  %23 = load ptr, ptr %5, align 8, !tbaa !67
  call void @sapi_cli_server_log_write(i32 noundef %22, ptr noundef %23)
  %24 = load ptr, ptr %5, align 8, !tbaa !67
  call void @_efree(ptr noundef %24)
  store i32 0, ptr %7, align 4
  br label %25

25:                                               ; preds = %21, %20, %11
  call void @llvm.lifetime.end.p0(i64 24, ptr %6) #20
  call void @llvm.lifetime.end.p0(i64 8, ptr %5) #20
  %26 = load i32, ptr %7, align 4
  switch i32 %26, label %28 [
    i32 0, label %27
    i32 1, label %27
  ]

27:                                               ; preds = %25, %25
  ret void

28:                                               ; preds = %25
  unreachable
}