; Function Attrs: nounwind uwtable
define internal void @php_cli_server_logf(i32 noundef range(i32 1, 4) %0, ptr noundef %1, ...) unnamed_addr #0 {
  %3 = alloca ptr, align 8
  %4 = alloca [1 x %struct.__va_list_tag], align 16
  call void @llvm.lifetime.start.p0(i64 8, ptr nonnull %3) #29
  store ptr null, ptr %3, align 8, !tbaa !117
  call void @llvm.lifetime.start.p0(i64 24, ptr nonnull %4) #29
  %5 = load i32, ptr @php_cli_server_log_level, align 4, !tbaa !74
  %6 = icmp slt i32 %5, %0
  br i1 %6, label %12, label %7

7:                                                ; preds = %2
  call void @llvm.va_start.p0(ptr nonnull %4)
  %8 = call i64 @zend_vspprintf(ptr noundef nonnull %3, i64 noundef 0, ptr noundef %1, ptr noundef nonnull %4) #29
  call void @llvm.va_end.p0(ptr nonnull %4)
  %9 = load ptr, ptr %3, align 8, !tbaa !117
  %.not = icmp eq ptr %9, null
  br i1 %.not, label %12, label %10

10:                                               ; preds = %7
  call fastcc void @sapi_cli_server_log_write(i32 noundef %0, ptr noundef nonnull %9)
  %11 = load ptr, ptr %3, align 8, !tbaa !117
  call void @_efree(ptr noundef %11) #29
  br label %12

12:                                               ; preds = %7, %2, %10
  call void @llvm.lifetime.end.p0(i64 24, ptr nonnull %4) #29
  call void @llvm.lifetime.end.p0(i64 8, ptr nonnull %3) #29
  ret void
}